; Function Attrs: mustprogress uwtable
define hidden noundef zeroext i1 @_ZN4lean20is_nested_annotationERKNS_4exprERKNS_4nameE(ptr noundef nonnull readonly align 8 captures(none) dereferenceable(8) %0, ptr noundef nonnull readonly align 8 captures(none) dereferenceable(8) %1) local_unnamed_addr #0 personality ptr @__gxx_personality_v0 {
  %3 = alloca %"class.lean::optional", align 8
  %4 = alloca %"class.lean::optional", align 8
  %5 = alloca %"class.lean::name", align 8
  call void @llvm.lifetime.start.p0(i64 16, ptr nonnull %4) #16
  call void @_ZN4lean13is_annotationERKNS_4exprE(ptr dead_on_unwind nonnull writable sret(%"class.lean::optional") align 8 %4, ptr noundef nonnull align 8 dereferenceable(8) %0)
  %6 = load i8, ptr %4, align 8, !tbaa !34, !range !29, !noundef !30
  %7 = trunc nuw i8 %6 to i1
  br i1 %7, label %.lr.ph, label %_ZN4lean8optionalINS_4exprEED2Ev.exit

.lr.ph:                                           ; preds = %2
  %8 = getelementptr inbounds nuw i8, ptr %4, i64 8
  %9 = getelementptr inbounds nuw i8, ptr %3, i64 8
  br label %10

10:                                               ; preds = %.lr.ph, %_ZN4lean18get_annotation_argERKNS_4exprE.exit
  %.0715 = phi ptr [ %0, %.lr.ph ], [ %59, %_ZN4lean18get_annotation_argERKNS_4exprE.exit ]
  %11 = load ptr, ptr %8, align 8, !tbaa !3
  %12 = ptrtoint ptr %11 to i64
  %13 = and i64 %12, 1
  %.not.i.i.i = icmp eq i64 %13, 0
  br i1 %.not.i.i.i, label %14, label %24

14:                                               ; preds = %10
  %15 = load i32, ptr %11, align 4, !tbaa !10
  %16 = icmp sgt i32 %15, 1
  br i1 %16, label %17, label %19, !prof !13

17:                                               ; preds = %14
  %18 = add nsw i32 %15, -1
  store i32 %18, ptr %11, align 4, !tbaa !10
  br label %24

19:                                               ; preds = %14
  %.not.i.i.i.i = icmp eq i32 %15, 0
  br i1 %.not.i.i.i.i, label %24, label %20

20:                                               ; preds = %19
  invoke void @lean_dec_ref_cold(ptr noundef nonnull %11)
          to label %24 unwind label %21

21:                                               ; preds = %20
  %22 = landingpad { ptr, i32 }
          catch ptr null
  %23 = extractvalue { ptr, i32 } %22, 0
  tail call void @__clang_call_terminate(ptr %23) #17
  unreachable

_ZN4lean8optionalINS_4exprEED2Ev.exit:            ; preds = %_ZN4lean18get_annotation_argERKNS_4exprE.exit, %2
  call void @llvm.lifetime.end.p0(i64 16, ptr nonnull %4) #16
  br label %.loopexit

24:                                               ; preds = %10, %17, %19, %20
  call void @llvm.lifetime.end.p0(i64 16, ptr nonnull %4) #16
  call void @llvm.lifetime.start.p0(i64 8, ptr nonnull %5) #16
  call void @_ZN4lean19get_annotation_kindERKNS_4exprE(ptr dead_on_unwind nonnull writable sret(%"class.lean::name") align 8 %5, ptr noundef nonnull align 8 dereferenceable(8) %.0715)
  %25 = load ptr, ptr %5, align 8, !tbaa !3
  %26 = load ptr, ptr %1, align 8, !tbaa !3
  %27 = invoke zeroext i8 @lean_name_eq(ptr noundef %25, ptr noundef %26)
          to label %28 unwind label %41

28:                                               ; preds = %24
  %.not = icmp eq i8 %27, 0
  %29 = ptrtoint ptr %25 to i64
  %30 = and i64 %29, 1
  %.not.i.i = icmp eq i64 %30, 0
  br i1 %.not.i.i, label %31, label %_ZN4lean10object_refD2Ev.exit

31:                                               ; preds = %28
  %32 = load i32, ptr %25, align 4, !tbaa !10
  %33 = icmp sgt i32 %32, 1
  br i1 %33, label %34, label %36, !prof !13

34:                                               ; preds = %31
  %35 = add nsw i32 %32, -1
  store i32 %35, ptr %25, align 4, !tbaa !10
  br label %_ZN4lean10object_refD2Ev.exit

36:                                               ; preds = %31
  %.not.i.i.i8 = icmp eq i32 %32, 0
  br i1 %.not.i.i.i8, label %_ZN4lean10object_refD2Ev.exit, label %37

37:                                               ; preds = %36
  invoke void @lean_dec_ref_cold(ptr noundef nonnull %25)
          to label %_ZN4lean10object_refD2Ev.exit unwind label %38

38:                                               ; preds = %37
  %39 = landingpad { ptr, i32 }
          catch ptr null
  %40 = extractvalue { ptr, i32 } %39, 0
  tail call void @__clang_call_terminate(ptr %40) #17
  unreachable

_ZN4lean10object_refD2Ev.exit:                    ; preds = %28, %34, %36, %37
  call void @llvm.lifetime.end.p0(i64 8, ptr nonnull %5) #16
  br i1 %.not, label %43, label %.loopexit

41:                                               ; preds = %24
  %42 = landingpad { ptr, i32 }
          cleanup
  call void @_ZN4lean10object_refD2Ev(ptr noundef nonnull align 8 dereferenceable(8) %5) #16
  call void @llvm.lifetime.end.p0(i64 8, ptr nonnull %5) #16
  resume { ptr, i32 } %42

43:                                               ; preds = %_ZN4lean10object_refD2Ev.exit
  call void @llvm.lifetime.start.p0(i64 16, ptr nonnull %3) #16
  call void @_ZN4lean13is_annotationERKNS_4exprE(ptr dead_on_unwind nonnull writable sret(%"class.lean::optional") align 8 %3, ptr noundef nonnull readonly align 8 dereferenceable(8) %.0715)
  %44 = load ptr, ptr %9, align 8, !tbaa !3
  %45 = load i8, ptr %3, align 8, !tbaa !34, !range !29, !noundef !30
  %46 = trunc nuw i8 %45 to i1
  %47 = ptrtoint ptr %44 to i64
  %48 = and i64 %47, 1
  %.not.i.i.i.i9 = icmp eq i64 %48, 0
  %or.cond.i = select i1 %46, i1 %.not.i.i.i.i9, i1 false
  br i1 %or.cond.i, label %49, label %_ZN4lean18get_annotation_argERKNS_4exprE.exit

49:                                               ; preds = %43
  %50 = load i32, ptr %44, align 4, !tbaa !10
  %51 = icmp sgt i32 %50, 1
  br i1 %51, label %52, label %54, !prof !13

52:                                               ; preds = %49
  %53 = add nsw i32 %50, -1
  store i32 %53, ptr %44, align 4, !tbaa !10
  br label %_ZN4lean18get_annotation_argERKNS_4exprE.exit

54:                                               ; preds = %49
  %.not.i.i.i.i.i = icmp eq i32 %50, 0
  br i1 %.not.i.i.i.i.i, label %_ZN4lean18get_annotation_argERKNS_4exprE.exit, label %55

55:                                               ; preds = %54
  invoke void @lean_dec_ref_cold(ptr noundef nonnull %44)
          to label %_ZN4lean18get_annotation_argERKNS_4exprE.exit unwind label %56

56:                                               ; preds = %55
  %57 = landingpad { ptr, i32 }
          catch ptr null
  %58 = extractvalue { ptr, i32 } %57, 0
  tail call void @__clang_call_terminate(ptr %58) #17
  unreachable

_ZN4lean18get_annotation_argERKNS_4exprE.exit:    ; preds = %43, %52, %54, %55
  %59 = getelementptr inbounds nuw i8, ptr %44, i64 16
  call void @llvm.lifetime.end.p0(i64 16, ptr nonnull %3) #16
  call void @llvm.lifetime.start.p0(i64 16, ptr nonnull %4) #16
  call void @_ZN4lean13is_annotationERKNS_4exprE(ptr dead_on_unwind nonnull writable sret(%"class.lean::optional") align 8 %4, ptr noundef nonnull align 8 dereferenceable(8) %59)
  %60 = load i8, ptr %4, align 8, !tbaa !34, !range !29, !noundef !30
  %61 = trunc nuw i8 %60 to i1
  br i1 %61, label %10, label %_ZN4lean8optionalINS_4exprEED2Ev.exit, !llvm.loop !67

.loopexit:                                        ; preds = %_ZN4lean10object_refD2Ev.exit, %_ZN4lean8optionalINS_4exprEED2Ev.exit
  %62 = phi i1 [ false, %_ZN4lean8optionalINS_4exprEED2Ev.exit ], [ true, %_ZN4lean10object_refD2Ev.exit ]
  ret i1 %62
}